; ModuleID = '25/1242.cpp'
source_filename = "25/1242.cpp"
target datalayout = "e-m:e-p270:32:32-p271:32:32-p272:64:64-i64:64-f80:128-n8:16:32:64-S128"
target triple = "x86_64-pc-linux-gnu"

%"class.std::ios_base::Init" = type { i8 }
%"class.std::basic_istream" = type { i32 (...)**, i64, %"class.std::basic_ios" }
%"class.std::basic_ios" = type { %"class.std::ios_base", %"class.std::basic_ostream"*, i8, i8, %"class.std::basic_streambuf"*, %"class.std::ctype"*, %"class.std::num_put"*, %"class.std::num_get"* }
%"class.std::ios_base" = type { i32 (...)**, i64, i64, i32, i32, i32, %"struct.std::ios_base::_Callback_list"*, %"struct.std::ios_base::_Words", [8 x %"struct.std::ios_base::_Words"], i32, %"struct.std::ios_base::_Words"*, %"class.std::locale" }
%"struct.std::ios_base::_Callback_list" = type { %"struct.std::ios_base::_Callback_list"*, void (i32, %"class.std::ios_base"*, i32)*, i32, i32 }
%"struct.std::ios_base::_Words" = type { i8*, i64 }
%"class.std::locale" = type { %"class.std::locale::_Impl"* }
%"class.std::locale::_Impl" = type { i32, %"class.std::locale::facet"**, i64, %"class.std::locale::facet"**, i8** }
%"class.std::locale::facet" = type <{ i32 (...)**, i32, [4 x i8] }>
%"class.std::basic_ostream" = type { i32 (...)**, %"class.std::basic_ios" }
%"class.std::basic_streambuf" = type { i32 (...)**, i8*, i8*, i8*, i8*, i8*, i8*, %"class.std::locale" }
%"class.std::ctype" = type <{ %"class.std::locale::facet.base", [4 x i8], %struct.__locale_struct*, i8, [7 x i8], i32*, i32*, i16*, i8, [256 x i8], [256 x i8], i8, [6 x i8] }>
%"class.std::locale::facet.base" = type <{ i32 (...)**, i32 }>
%struct.__locale_struct = type { [13 x %struct.__locale_data*], i16*, i32*, i32*, [13 x i8*] }
%struct.__locale_data = type opaque
%"class.std::num_put" = type { %"class.std::locale::facet.base", [4 x i8] }
%"class.std::num_get" = type { %"class.std::locale::facet.base", [4 x i8] }

@_ZStL8__ioinit = internal global %"class.std::ios_base::Init" zeroinitializer, align 1
@__dso_handle = external hidden global i8
@_ZSt3cin = external dso_local global %"class.std::basic_istream", align 8
@_ZSt4cout = external dso_local global %"class.std::basic_ostream", align 8
@llvm.global_ctors = appending global [1 x { i32, void ()*, i8* }] [{ i32, void ()*, i8* } { i32 65535, void ()* @_GLOBAL__sub_I_1242.cpp, i8* null }]

; Function Attrs: noinline uwtable
define internal void @__cxx_global_var_init() #0 section ".text.startup" {
  call void @_ZNSt8ios_base4InitC1Ev(%"class.std::ios_base::Init"* @_ZStL8__ioinit)
  %1 = call i32 @__cxa_atexit(void (i8*)* bitcast (void (%"class.std::ios_base::Init"*)* @_ZNSt8ios_base4InitD1Ev to void (i8*)*), i8* getelementptr inbounds (%"class.std::ios_base::Init", %"class.std::ios_base::Init"* @_ZStL8__ioinit, i32 0, i32 0), i8* @__dso_handle) #3
  ret void
}

declare dso_local void @_ZNSt8ios_base4InitC1Ev(%"class.std::ios_base::Init"*) unnamed_addr #1

; Function Attrs: nounwind
declare dso_local void @_ZNSt8ios_base4InitD1Ev(%"class.std::ios_base::Init"*) unnamed_addr #2

; Function Attrs: nounwind
declare dso_local i32 @__cxa_atexit(void (i8*)*, i8*, i8*) #3

; Function Attrs: noinline norecurse uwtable
define dso_local i32 @main() #4 {
  %1 = alloca i32, align 4
  %2 = alloca i32, align 4
  %3 = alloca i32, align 4
  %4 = alloca i32, align 4
  %5 = alloca i32, align 4
  %6 = alloca [35 x i16], align 16
  store i32 0, i32* %1, align 4
  store i32 0, i32* %5, align 4
  %7 = call dereferenceable(280) %"class.std::basic_istream"* @_ZNSirsERi(%"class.std::basic_istream"* @_ZSt3cin, i32* dereferenceable(4) %2)
  %8 = bitcast [35 x i16]* %6 to i8*
  call void @llvm.memset.p0i8.i64(i8* align 16 %8, i8 0, i64 70, i1 false)
  %9 = bitcast i8* %8 to <{ i16, [34 x i16] }>*
  %10 = getelementptr inbounds <{ i16, [34 x i16] }>, <{ i16, [34 x i16] }>* %9, i32 0, i32 0
  store i16 1, i16* %10, align 16
  store i32 1, i32* %3, align 4
  br label %11

11:                                               ; preds = %55, %0
  %12 = load i32, i32* %3, align 4
  %13 = load i32, i32* %2, align 4
  %14 = icmp sle i32 %12, %13
  br i1 %14, label %15, label %58

15:                                               ; preds = %11
  store i32 0, i32* %4, align 4
  br label %16

16:                                               ; preds = %51, %15
  %17 = load i32, i32* %4, align 4
  %18 = icmp sle i32 %17, 34
  br i1 %18, label %19, label %54

19:                                               ; preds = %16
  %20 = load i32, i32* %4, align 4
  %21 = sext i32 %20 to i64
  %22 = getelementptr inbounds [35 x i16], [35 x i16]* %6, i64 0, i64 %21
  %23 = load i16, i16* %22, align 2
  %24 = sext i16 %23 to i32
  %25 = mul nsw i32 %24, 2
  %26 = load i32, i32* %5, align 4
  %27 = add nsw i32 %25, %26
  %28 = trunc i32 %27 to i16
  %29 = load i32, i32* %4, align 4
  %30 = sext i32 %29 to i64
  %31 = getelementptr inbounds [35 x i16], [35 x i16]* %6, i64 0, i64 %30
  store i16 %28, i16* %31, align 2
  %32 = load i32, i32* %4, align 4
  %33 = sext i32 %32 to i64
  %34 = getelementptr inbounds [35 x i16], [35 x i16]* %6, i64 0, i64 %33
  %35 = load i16, i16* %34, align 2
  %36 = sext i16 %35 to i32
  %37 = icmp sge i32 %36, 10
  br i1 %37, label %38, label %49

38:                                               ; preds = %19
  %39 = load i32, i32* %4, align 4
  %40 = sext i32 %39 to i64
  %41 = getelementptr inbounds [35 x i16], [35 x i16]* %6, i64 0, i64 %40
  %42 = load i16, i16* %41, align 2
  %43 = sext i16 %42 to i32
  %44 = sub nsw i32 %43, 10
  %45 = trunc i32 %44 to i16
  %46 = load i32, i32* %4, align 4
  %47 = sext i32 %46 to i64
  %48 = getelementptr inbounds [35 x i16], [35 x i16]* %6, i64 0, i64 %47
  store i16 %45, i16* %48, align 2
  store i32 1, i32* %5, align 4
  br label %50

49:                                               ; preds = %19
  store i32 0, i32* %5, align 4
  br label %50

50:                                               ; preds = %49, %38
  br label %51

51:                                               ; preds = %50
  %52 = load i32, i32* %4, align 4
  %53 = add nsw i32 %52, 1
  store i32 %53, i32* %4, align 4
  br label %16

54:                                               ; preds = %16
  br label %55

55:                                               ; preds = %54
  %56 = load i32, i32* %3, align 4
  %57 = add nsw i32 %56, 1
  store i32 %57, i32* %3, align 4
  br label %11

58:                                               ; preds = %11
  store i32 34, i32* %4, align 4
  br label %59

59:                                               ; preds = %67, %58
  %60 = load i32, i32* %4, align 4
  %61 = sext i32 %60 to i64
  %62 = getelementptr inbounds [35 x i16], [35 x i16]* %6, i64 0, i64 %61
  %63 = load i16, i16* %62, align 2
  %64 = sext i16 %63 to i32
  %65 = icmp eq i32 %64, 0
  br i1 %65, label %66, label %70

66:                                               ; preds = %59
  br label %67

67:                                               ; preds = %66
  %68 = load i32, i32* %4, align 4
  %69 = add nsw i32 %68, -1
  store i32 %69, i32* %4, align 4
  br label %59

70:                                               ; preds = %59
  br label %71

71:                                               ; preds = %80, %70
  %72 = load i32, i32* %4, align 4
  %73 = icmp sge i32 %72, 0
  br i1 %73, label %74, label %83

74:                                               ; preds = %71
  %75 = load i32, i32* %4, align 4
  %76 = sext i32 %75 to i64
  %77 = getelementptr inbounds [35 x i16], [35 x i16]* %6, i64 0, i64 %76
  %78 = load i16, i16* %77, align 2
  %79 = call dereferenceable(272) %"class.std::basic_ostream"* @_ZNSolsEs(%"class.std::basic_ostream"* @_ZSt4cout, i16 signext %78)
  br label %80

80:                                               ; preds = %74
  %81 = load i32, i32* %4, align 4
  %82 = add nsw i32 %81, -1
  store i32 %82, i32* %4, align 4
  br label %71

83:                                               ; preds = %71
  ret i32 0
}

declare dso_local dereferenceable(280) %"class.std::basic_istream"* @_ZNSirsERi(%"class.std::basic_istream"*, i32* dereferenceable(4)) #1

; Function Attrs: argmemonly nounwind willreturn
declare void @llvm.memset.p0i8.i64(i8* nocapture writeonly, i8, i64, i1 immarg) #5

declare dso_local dereferenceable(272) %"class.std::basic_ostream"* @_ZNSolsEs(%"class.std::basic_ostream"*, i16 signext) #1

; Function Attrs: noinline uwtable
define internal void @_GLOBAL__sub_I_1242.cpp() #0 section ".text.startup" {
  call void @__cxx_global_var_init()
  ret void
}


!llvm.module.flags = !{!0}
!llvm.ident = !{!1}

!0 = !{i32 1, !"wchar_size", i32 4}
!1 = !{!"clang version 10.0.0-4ubuntu1 "}
